target datalayout = "e-m:e-p270:32:32-p271:32:32-p272:64:64-i64:64-i128:128-f80:128-n8:16:32:64-S128"
target triple = "x86_64-pc-linux-gnu"

%"class.lean::object_ref" = type { ptr }
%"class.lean::buffer" = type { ptr, i64, i64, [128 x i8] }
%struct.lean_object = type { i32, i32 }
%struct.lean_array_object = type { %struct.lean_object, i64, i64, [0 x ptr] }

; Function Attrs: inlinehint mustprogress nounwind uwtable
define internal noundef zeroext i1 @_ZL10lean_is_stP11lean_object(ptr noundef %0) #5 {
  %2 = alloca ptr, align 8
  store ptr %0, ptr %2, align 8, !tbaa !8
  %3 = load ptr, ptr %2, align 8, !tbaa !8
  %4 = getelementptr inbounds nuw %struct.lean_object, ptr %3, i32 0, i32 0
  %5 = load i32, ptr %4, align 4, !tbaa !127
  %6 = icmp sgt i32 %5, 0
  ret i1 %6
}

; Function Attrs: inlinehint mustprogress nounwind uwtable
define internal noundef ptr @_ZL13lean_to_arrayP11lean_object(ptr noundef %0) #5 {
  %2 = alloca ptr, align 8
  store ptr %0, ptr %2, align 8, !tbaa !8
  %3 = load ptr, ptr %2, align 8, !tbaa !8
  ret ptr %3
}

; Function Attrs: inlinehint mustprogress nounwind uwtable
define internal void @_ZL18lean_set_st_headerP11lean_objectjj(ptr noundef %0, i32 noundef %1, i32 noundef %2) #5 {
  %4 = alloca ptr, align 8
  %5 = alloca i32, align 4
  %6 = alloca i32, align 4
  store ptr %0, ptr %4, align 8, !tbaa !8
  store i32 %1, ptr %5, align 4, !tbaa !23
  store i32 %2, ptr %6, align 4, !tbaa !23
  %7 = load ptr, ptr %4, align 8, !tbaa !8
  %8 = getelementptr inbounds nuw %struct.lean_object, ptr %7, i32 0, i32 0
  store i32 1, ptr %8, align 4, !tbaa !127
  %9 = load i32, ptr %5, align 4, !tbaa !23
  %10 = load ptr, ptr %4, align 8, !tbaa !8
  %11 = getelementptr inbounds nuw %struct.lean_object, ptr %10, i32 0, i32 1
  %12 = load i32, ptr %11, align 4
  %13 = and i32 %9, 255
  %14 = shl i32 %13, 24
  %15 = and i32 %12, 16777215
  %16 = or i32 %15, %14
  store i32 %16, ptr %11, align 4
  %17 = load i32, ptr %6, align 4, !tbaa !23
  %18 = load ptr, ptr %4, align 8, !tbaa !8
  %19 = getelementptr inbounds nuw %struct.lean_object, ptr %18, i32 0, i32 1
  %20 = load i32, ptr %19, align 4
  %21 = and i32 %17, 255
  %22 = shl i32 %21, 16
  %23 = and i32 %20, -16711681
  %24 = or i32 %23, %22
  store i32 %24, ptr %19, align 4
  ret void
}

; Function Attrs: inlinehint mustprogress uwtable
define internal void @_ZL12lean_inc_refP11lean_object(ptr noundef %0) #1 {
  %2 = alloca ptr, align 8
  store ptr %0, ptr %2, align 8, !tbaa !8
  %3 = load ptr, ptr %2, align 8, !tbaa !8
  %4 = call noundef zeroext i1 @_ZL10lean_is_stP11lean_object(ptr noundef %3)
  %5 = zext i1 %4 to i64
  %6 = call i64 @llvm.expect.i64(i64 %5, i64 1)
  %7 = icmp ne i64 %6, 0
  br i1 %7, label %8, label %13

8:                                                ; preds = %1
  %9 = load ptr, ptr %2, align 8, !tbaa !8
  %10 = getelementptr inbounds nuw %struct.lean_object, ptr %9, i32 0, i32 0
  %11 = load i32, ptr %10, align 4, !tbaa !127
  %12 = add nsw i32 %11, 1
  store i32 %12, ptr %10, align 4, !tbaa !127
  br label %21

13:                                               ; preds = %1
  %14 = load ptr, ptr %2, align 8, !tbaa !8
  %15 = getelementptr inbounds nuw %struct.lean_object, ptr %14, i32 0, i32 0
  %16 = load i32, ptr %15, align 4, !tbaa !127
  %17 = icmp ne i32 %16, 0
  br i1 %17, label %18, label %20

18:                                               ; preds = %13
  %19 = load ptr, ptr %2, align 8, !tbaa !8
  call void @lean_inc_ref_cold(ptr noundef %19)
  br label %20

20:                                               ; preds = %18, %13
  br label %21

21:                                               ; preds = %20, %8
  ret void
}

; Function Attrs: alwaysinline mustprogress nounwind uwtable
define internal noundef zeroext i1 @_ZL14lean_is_scalarP11lean_object(ptr noundef %0) #11 {
  %2 = alloca ptr, align 8
  store ptr %0, ptr %2, align 8, !tbaa !8
  %3 = load ptr, ptr %2, align 8, !tbaa !8
  %4 = ptrtoint ptr %3 to i64
  %5 = and i64 %4, 1
  %6 = icmp eq i64 %5, 1
  ret i1 %6
}

; Function Attrs: inlinehint mustprogress nounwind uwtable
define internal void @_ZL19lean_array_set_coreP11lean_objectmS0_(ptr noundef %0, i64 noundef %1, ptr noundef %2) #5 {
  %4 = alloca ptr, align 8
  %5 = alloca i64, align 8
  %6 = alloca ptr, align 8
  store ptr %0, ptr %4, align 8, !tbaa !8
  store i64 %1, ptr %5, align 8, !tbaa !15
  store ptr %2, ptr %6, align 8, !tbaa !8
  %7 = load ptr, ptr %6, align 8, !tbaa !8
  %8 = load ptr, ptr %4, align 8, !tbaa !8
  %9 = call noundef ptr @_ZL13lean_to_arrayP11lean_object(ptr noundef %8)
  %10 = getelementptr inbounds nuw %struct.lean_array_object, ptr %9, i32 0, i32 3
  %11 = load i64, ptr %5, align 8, !tbaa !15
  %12 = getelementptr inbounds nuw [0 x ptr], ptr %10, i64 0, i64 %11
  store ptr %7, ptr %12, align 8, !tbaa !8
  ret void
}

; Function Attrs: inlinehint mustprogress uwtable
define internal noundef ptr @_ZL16lean_alloc_arraymm(i64 noundef %0, i64 noundef %1) #1 {
  %3 = alloca i64, align 8
  %4 = alloca i64, align 8
  %5 = alloca ptr, align 8
  store i64 %0, ptr %3, align 8, !tbaa !15
  store i64 %1, ptr %4, align 8, !tbaa !15
  call void @llvm.lifetime.start.p0(i64 8, ptr %5) #17
  %6 = load i64, ptr %4, align 8, !tbaa !15
  %7 = mul i64 8, %6
  %8 = add i64 24, %7
  %9 = call ptr @lean_alloc_object(i64 noundef %8)
  store ptr %9, ptr %5, align 8, !tbaa !8
  %10 = load ptr, ptr %5, align 8, !tbaa !8
  call void @_ZL18lean_set_st_headerP11lean_objectjj(ptr noundef %10, i32 noundef 246, i32 noundef 0)
  %11 = load i64, ptr %3, align 8, !tbaa !15
  %12 = load ptr, ptr %5, align 8, !tbaa !8
  %13 = getelementptr inbounds nuw %struct.lean_array_object, ptr %12, i32 0, i32 1
  store i64 %11, ptr %13, align 8, !tbaa !15
  %14 = load i64, ptr %4, align 8, !tbaa !15
  %15 = load ptr, ptr %5, align 8, !tbaa !8
  %16 = getelementptr inbounds nuw %struct.lean_array_object, ptr %15, i32 0, i32 2
  store i64 %14, ptr %16, align 8, !tbaa !15
  %17 = load ptr, ptr %5, align 8, !tbaa !8
  call void @llvm.lifetime.end.p0(i64 8, ptr %5) #17
  ret ptr %17
}

; Function Attrs: alwaysinline mustprogress uwtable
define internal void @_ZL8lean_incP11lean_object(ptr noundef %0) #10 {
  %2 = alloca ptr, align 8
  store ptr %0, ptr %2, align 8, !tbaa !8
  %3 = load ptr, ptr %2, align 8, !tbaa !8
  %4 = call noundef zeroext i1 @_ZL14lean_is_scalarP11lean_object(ptr noundef %3)
  br i1 %4, label %7, label %5

5:                                                ; preds = %1
  %6 = load ptr, ptr %2, align 8, !tbaa !8
  call void @_ZL12lean_inc_refP11lean_object(ptr noundef %6)
  br label %7

7:                                                ; preds = %5, %1
  ret void
}

; Function Attrs: inlinehint mustprogress uwtable
define linkonce_odr hidden void @_ZN4lean9array_setEP11lean_objectmS1_(ptr noundef %0, i64 noundef %1, ptr noundef %2) #1 comdat {
  %4 = alloca ptr, align 8
  %5 = alloca i64, align 8
  %6 = alloca ptr, align 8
  store ptr %0, ptr %4, align 8, !tbaa !8
  store i64 %1, ptr %5, align 8, !tbaa !15
  store ptr %2, ptr %6, align 8, !tbaa !8
  %7 = load ptr, ptr %4, align 8, !tbaa !8
  %8 = load i64, ptr %5, align 8, !tbaa !15
  %9 = load ptr, ptr %6, align 8, !tbaa !8
  call void @_ZL19lean_array_set_coreP11lean_objectmS0_(ptr noundef %7, i64 noundef %8, ptr noundef %9)
  ret void
}

; Function Attrs: mustprogress nounwind uwtable
define linkonce_odr hidden noundef ptr @_ZNK4lean10object_ref3rawEv(ptr noundef nonnull align 8 dereferenceable(8) %0) #2 comdat align 2 {
  %2 = alloca ptr, align 8
  store ptr %0, ptr %2, align 8, !tbaa !9
  %3 = load ptr, ptr %2, align 8
  %4 = getelementptr inbounds nuw %"class.lean::object_ref", ptr %3, i32 0, i32 0
  %5 = load ptr, ptr %4, align 8, !tbaa !11
  ret ptr %5
}

; Function Attrs: mustprogress nounwind uwtable
define linkonce_odr hidden noundef ptr @_ZNK4lean6bufferINS_10object_refELm16EE3endEv(ptr noundef nonnull align 8 dereferenceable(152) %0) #2 comdat align 2 {
  %2 = alloca ptr, align 8
  store ptr %0, ptr %2, align 8, !tbaa !25
  %3 = load ptr, ptr %2, align 8
  %4 = getelementptr inbounds nuw %"class.lean::buffer", ptr %3, i32 0, i32 0
  %5 = load ptr, ptr %4, align 8, !tbaa !71
  %6 = call noundef i64 @_ZNK4lean6bufferINS_10object_refELm16EE4sizeEv(ptr noundef nonnull align 8 dereferenceable(152) %3)
  %7 = getelementptr inbounds nuw %"class.lean::object_ref", ptr %5, i64 %6
  ret ptr %7
}

; Function Attrs: mustprogress nounwind uwtable
define linkonce_odr hidden noundef ptr @_ZNK4lean6bufferINS_10object_refELm16EE5beginEv(ptr noundef nonnull align 8 dereferenceable(152) %0) #2 comdat align 2 {
  %2 = alloca ptr, align 8
  store ptr %0, ptr %2, align 8, !tbaa !25
  %3 = load ptr, ptr %2, align 8
  %4 = getelementptr inbounds nuw %"class.lean::buffer", ptr %3, i32 0, i32 0
  %5 = load ptr, ptr %4, align 8, !tbaa !71
  ret ptr %5
}

; Function Attrs: inlinehint mustprogress uwtable
define linkonce_odr hidden noundef ptr @_ZN4lean11alloc_arrayEmm(i64 noundef %0, i64 noundef %1) #1 comdat {
  %3 = alloca i64, align 8
  %4 = alloca i64, align 8
  store i64 %0, ptr %3, align 8, !tbaa !15
  store i64 %1, ptr %4, align 8, !tbaa !15
  %5 = load i64, ptr %3, align 8, !tbaa !15
  %6 = load i64, ptr %4, align 8, !tbaa !15
  %7 = call noundef ptr @_ZL16lean_alloc_arraymm(i64 noundef %5, i64 noundef %6)
  ret ptr %7
}

; Function Attrs: mustprogress nounwind uwtable
define linkonce_odr hidden noundef i64 @_ZNK4lean6bufferINS_10object_refELm16EE4sizeEv(ptr noundef nonnull align 8 dereferenceable(152) %0) #2 comdat align 2 {
  %2 = alloca ptr, align 8
  store ptr %0, ptr %2, align 8, !tbaa !25
  %3 = load ptr, ptr %2, align 8
  %4 = getelementptr inbounds nuw %"class.lean::buffer", ptr %3, i32 0, i32 1
  %5 = load i64, ptr %4, align 8, !tbaa !73
  ret i64 %5
}

; Function Attrs: inlinehint mustprogress uwtable
define linkonce_odr hidden void @_ZN4lean3incEP11lean_object(ptr noundef %0) #1 comdat {
  %2 = alloca ptr, align 8
  store ptr %0, ptr %2, align 8, !tbaa !8
  %3 = load ptr, ptr %2, align 8, !tbaa !8
  call void @_ZL8lean_incP11lean_object(ptr noundef %3)
  ret void
}

; Function Attrs: mustprogress nounwind uwtable
define linkonce_odr hidden void @_ZN4lean10object_refC2EP11lean_object(ptr noundef nonnull align 8 dereferenceable(8) %0, ptr noundef %1) unnamed_addr #2 comdat align 2 {
  %3 = alloca ptr, align 8
  %4 = alloca ptr, align 8
  store ptr %0, ptr %3, align 8, !tbaa !9
  store ptr %1, ptr %4, align 8, !tbaa !8
  %5 = load ptr, ptr %3, align 8
  %6 = getelementptr inbounds nuw %"class.lean::object_ref", ptr %5, i32 0, i32 0
  %7 = load ptr, ptr %4, align 8, !tbaa !8
  store ptr %7, ptr %6, align 8, !tbaa !11
  ret void
}

; Function Attrs: mustprogress uwtable
define linkonce_odr hidden noundef ptr @_ZN4lean8to_arrayINS_6bufferINS_10object_refELm16EEEEEP11lean_objectRKT_(ptr noundef nonnull align 8 dereferenceable(152) %0) #0 comdat {
  %2 = alloca ptr, align 8
  %3 = alloca ptr, align 8
  %4 = alloca i64, align 8
  %5 = alloca ptr, align 8
  %6 = alloca ptr, align 8
  %7 = alloca ptr, align 8
  %8 = alloca ptr, align 8
  store ptr %0, ptr %2, align 8, !tbaa !25
  call void @llvm.lifetime.start.p0(i64 8, ptr %3) #17
  %9 = load ptr, ptr %2, align 8, !tbaa !25
  %10 = call noundef i64 @_ZNK4lean6bufferINS_10object_refELm16EE4sizeEv(ptr noundef nonnull align 8 dereferenceable(152) %9)
  %11 = load ptr, ptr %2, align 8, !tbaa !25
  %12 = call noundef i64 @_ZNK4lean6bufferINS_10object_refELm16EE4sizeEv(ptr noundef nonnull align 8 dereferenceable(152) %11)
  %13 = call noundef ptr @_ZN4lean11alloc_arrayEmm(i64 noundef %10, i64 noundef %12)
  store ptr %13, ptr %3, align 8, !tbaa !8
  call void @llvm.lifetime.start.p0(i64 8, ptr %4) #17
  store i64 0, ptr %4, align 8, !tbaa !15
  call void @llvm.lifetime.start.p0(i64 8, ptr %5) #17
  %14 = load ptr, ptr %2, align 8, !tbaa !25
  store ptr %14, ptr %5, align 8, !tbaa !25
  call void @llvm.lifetime.start.p0(i64 8, ptr %6) #17
  %15 = load ptr, ptr %5, align 8, !tbaa !25
  %16 = call noundef ptr @_ZNK4lean6bufferINS_10object_refELm16EE5beginEv(ptr noundef nonnull align 8 dereferenceable(152) %15)
  store ptr %16, ptr %6, align 8, !tbaa !9
  call void @llvm.lifetime.start.p0(i64 8, ptr %7) #17
  %17 = load ptr, ptr %5, align 8, !tbaa !25
  %18 = call noundef ptr @_ZNK4lean6bufferINS_10object_refELm16EE3endEv(ptr noundef nonnull align 8 dereferenceable(152) %17)
  store ptr %18, ptr %7, align 8, !tbaa !9
  br label %19

19:                                               ; preds = %34, %1
  %20 = load ptr, ptr %6, align 8, !tbaa !9
  %21 = load ptr, ptr %7, align 8, !tbaa !9
  %22 = icmp ne ptr %20, %21
  br i1 %22, label %24, label %23

23:                                               ; preds = %19
  call void @llvm.lifetime.end.p0(i64 8, ptr %7) #17
  call void @llvm.lifetime.end.p0(i64 8, ptr %6) #17
  call void @llvm.lifetime.end.p0(i64 8, ptr %5) #17
  br label %37

24:                                               ; preds = %19
  call void @llvm.lifetime.start.p0(i64 8, ptr %8) #17
  %25 = load ptr, ptr %6, align 8, !tbaa !9
  store ptr %25, ptr %8, align 8, !tbaa !9
  %26 = load ptr, ptr %8, align 8, !tbaa !9
  %27 = call noundef ptr @_ZNK4lean10object_ref3rawEv(ptr noundef nonnull align 8 dereferenceable(8) %26)
  call void @_ZN4lean3incEP11lean_object(ptr noundef %27)
  %28 = load ptr, ptr %3, align 8, !tbaa !8
  %29 = load i64, ptr %4, align 8, !tbaa !15
  %30 = load ptr, ptr %8, align 8, !tbaa !9
  %31 = call noundef ptr @_ZNK4lean10object_ref3rawEv(ptr noundef nonnull align 8 dereferenceable(8) %30)
  call void @_ZN4lean9array_setEP11lean_objectmS1_(ptr noundef %28, i64 noundef %29, ptr noundef %31)
  %32 = load i64, ptr %4, align 8, !tbaa !15
  %33 = add i64 %32, 1
  store i64 %33, ptr %4, align 8, !tbaa !15
  call void @llvm.lifetime.end.p0(i64 8, ptr %8) #17
  br label %34

34:                                               ; preds = %24
  %35 = load ptr, ptr %6, align 8, !tbaa !9
  %36 = getelementptr inbounds nuw %"class.lean::object_ref", ptr %35, i32 1
  store ptr %36, ptr %6, align 8, !tbaa !9
  br label %19

37:                                               ; preds = %23
  %38 = load ptr, ptr %3, align 8, !tbaa !8
  call void @llvm.lifetime.end.p0(i64 8, ptr %4) #17
  call void @llvm.lifetime.end.p0(i64 8, ptr %3) #17
  ret ptr %38
}

; Function Attrs: mustprogress uwtable
define linkonce_odr hidden noundef ptr @_ZNK4lean10object_ref10to_obj_argEv(ptr noundef nonnull align 8 dereferenceable(8) %0) #0 comdat align 2 {
  %2 = alloca ptr, align 8
  store ptr %0, ptr %2, align 8, !tbaa !9
  %3 = load ptr, ptr %2, align 8
  %4 = getelementptr inbounds nuw %"class.lean::object_ref", ptr %3, i32 0, i32 0
  %5 = load ptr, ptr %4, align 8, !tbaa !11
  call void @_ZN4lean3incEP11lean_object(ptr noundef %5)
  %6 = getelementptr inbounds nuw %"class.lean::object_ref", ptr %3, i32 0, i32 0
  %7 = load ptr, ptr %6, align 8, !tbaa !11
  ret ptr %7
}

; Function Attrs: mustprogress uwtable
define hidden void @_ZN4lean2ir6mk_jmpERKNS_3natERKNS_6bufferINS_10object_refELm16EEE(ptr dead_on_unwind noalias writable sret(%"class.lean::object_ref") align 8 %0, ptr noundef nonnull align 8 dereferenceable(8) %1, ptr noundef nonnull align 8 dereferenceable(152) %2) #0 {
  %4 = alloca ptr, align 8
  %5 = alloca ptr, align 8
  %6 = alloca ptr, align 8
  store ptr %0, ptr %4, align 8
  store ptr %1, ptr %5, align 8, !tbaa !3
  store ptr %2, ptr %6, align 8, !tbaa !25
  %7 = load ptr, ptr %5, align 8, !tbaa !3
  %8 = call noundef ptr @_ZNK4lean10object_ref10to_obj_argEv(ptr noundef nonnull align 8 dereferenceable(8) %7)
  %9 = load ptr, ptr %6, align 8, !tbaa !25
  %10 = call noundef ptr @_ZN4lean8to_arrayINS_6bufferINS_10object_refELm16EEEEEP11lean_objectRKT_(ptr noundef nonnull align 8 dereferenceable(152) %9)
  %11 = call ptr @lean_ir_mk_jmp(ptr noundef %8, ptr noundef %10)
  call void @_ZN4lean10object_refC2EP11lean_object(ptr noundef nonnull align 8 dereferenceable(8) %0, ptr noundef %11)
  ret void
}